target datalayout = "e-m:e-p270:32:32-p271:32:32-p272:64:64-i64:64-i128:128-f80:128-n8:16:32:64-S128"
target triple = "x86_64-pc-linux-gnu"

%struct.rb_data_type_struct = type { ptr, %struct.anon, ptr, ptr, i64 }
%struct.anon = type { ptr, ptr, ptr, ptr, [1 x ptr] }
%struct.RTypedData = type { %struct.RBasic, ptr, i64, ptr }
%struct.RBasic = type { i64, i64 }

@ossl_bn_type = internal constant %struct.rb_data_type_struct { ptr @.str.62, %struct.anon { ptr null, ptr @ossl_bn_free, ptr null, ptr null, [1 x ptr] zeroinitializer }, ptr null, ptr null, i64 289 }, align 8
@eBNError = internal global i64 0, align 8
@rb_eRuntimeError = external global i64, align 8
@.str = private unnamed_addr constant [23 x i8] c"BN wasn't initialized!\00", align 1

; Function Attrs: nounwind sspstrong uwtable
define internal i64 @ossl_bn_add(i64 noundef %0, i64 noundef %1) #0 {
  %3 = alloca i64, align 8
  %4 = alloca i64, align 8
  %5 = alloca ptr, align 8
  %6 = alloca ptr, align 8
  %7 = alloca ptr, align 8
  %8 = alloca i64, align 8
  store i64 %0, ptr %3, align 8, !tbaa !11
  store i64 %1, ptr %4, align 8, !tbaa !11
  call void @llvm.lifetime.start.p0(i64 8, ptr %5) #20
  call void @llvm.lifetime.start.p0(i64 8, ptr %6) #20
  %9 = call ptr @ossl_bn_value_ptr(ptr noundef %4)
  store ptr %9, ptr %6, align 8, !tbaa !6
  call void @llvm.lifetime.start.p0(i64 8, ptr %7) #20
  call void @llvm.lifetime.start.p0(i64 8, ptr %8) #20
  br label %10

10:                                               ; preds = %2
  %11 = load i64, ptr %3, align 8, !tbaa !11
  %12 = call ptr @rb_check_typeddata(i64 noundef %11, ptr noundef @ossl_bn_type)
  store ptr %12, ptr %5, align 8, !tbaa !6
  %13 = load ptr, ptr %5, align 8, !tbaa !6
  %14 = icmp ne ptr %13, null
  br i1 %14, label %17, label %15

15:                                               ; preds = %10
  %16 = load i64, ptr @rb_eRuntimeError, align 8, !tbaa !11
  call void (i64, ptr, ...) @ossl_raise(i64 noundef %16, ptr noundef @.str) #21
  unreachable

17:                                               ; preds = %10
  br label %18

18:                                               ; preds = %17
  br label %19

19:                                               ; preds = %18
  %20 = load i64, ptr %3, align 8, !tbaa !11
  %21 = call i64 @rb_obj_class(i64 noundef %20)
  %22 = call i64 @rb_data_typed_object_wrap(i64 noundef %21, ptr noundef null, ptr noundef @ossl_bn_type)
  store i64 %22, ptr %8, align 8, !tbaa !11
  %23 = call ptr @BN_new()
  store ptr %23, ptr %7, align 8, !tbaa !6
  %24 = icmp ne ptr %23, null
  br i1 %24, label %27, label %25

25:                                               ; preds = %19
  %26 = load i64, ptr @eBNError, align 8, !tbaa !11
  call void (i64, ptr, ...) @ossl_raise(i64 noundef %26, ptr noundef null) #21
  unreachable

27:                                               ; preds = %19
  %28 = load ptr, ptr %7, align 8, !tbaa !6
  %29 = load ptr, ptr %5, align 8, !tbaa !6
  %30 = load ptr, ptr %6, align 8, !tbaa !6
  %31 = call i32 @BN_add(ptr noundef %28, ptr noundef %29, ptr noundef %30)
  %32 = icmp sle i32 %31, 0
  br i1 %32, label %33, label %36

33:                                               ; preds = %27
  %34 = load ptr, ptr %7, align 8, !tbaa !6
  call void @BN_free(ptr noundef %34)
  %35 = load i64, ptr @eBNError, align 8, !tbaa !11
  call void (i64, ptr, ...) @ossl_raise(i64 noundef %35, ptr noundef null) #21
  unreachable

36:                                               ; preds = %27
  br label %37

37:                                               ; preds = %36
  %38 = load ptr, ptr %7, align 8, !tbaa !6
  %39 = icmp ne ptr %38, null
  br i1 %39, label %42, label %40

40:                                               ; preds = %37
  %41 = load i64, ptr @rb_eRuntimeError, align 8, !tbaa !11
  call void (i64, ptr, ...) @ossl_raise(i64 noundef %41, ptr noundef @.str) #21
  unreachable

42:                                               ; preds = %37
  %43 = load ptr, ptr %7, align 8, !tbaa !6
  %44 = load i64, ptr %8, align 8, !tbaa !11
  %45 = inttoptr i64 %44 to ptr
  %46 = getelementptr inbounds nuw %struct.RTypedData, ptr %45, i32 0, i32 3
  store ptr %43, ptr %46, align 8, !tbaa !13
  br label %47

47:                                               ; preds = %42
  br label %48

48:                                               ; preds = %47
  %49 = load i64, ptr %8, align 8, !tbaa !11
  call void @llvm.lifetime.end.p0(i64 8, ptr %8) #20
  call void @llvm.lifetime.end.p0(i64 8, ptr %7) #20
  call void @llvm.lifetime.end.p0(i64 8, ptr %6) #20
  call void @llvm.lifetime.end.p0(i64 8, ptr %5) #20
  ret i64 %49
}